target datalayout = "e-m:e-p270:32:32-p271:32:32-p272:64:64-i64:64-f80:128-n8:16:32:64-S128"
target triple = "x86_64-pc-linux-gnu"

@.str = private unnamed_addr constant [4 x i8] c"No\0A\00", align 1
@.str.1 = private unnamed_addr constant [4 x i8] c"%d\0A\00", align 1

; Function Attrs: noinline nounwind uwtable
define dso_local void @main() #0 {
  %1 = alloca [300 x i32], align 16
  %2 = alloca i32, align 4
  %3 = alloca i32, align 4
  %4 = alloca i32, align 4
  %5 = alloca i32, align 4
  %6 = alloca i32, align 4
  %7 = alloca i32, align 4
  %8 = alloca i32, align 4
  %9 = alloca [2000 x i8], align 16
  %10 = alloca [2000 x i8], align 16
  store i32 0, i32* %6, align 4
  %11 = getelementptr inbounds [2000 x i8], [2000 x i8]* %9, i64 0, i64 0
  %12 = call i32 (i8*, ...) bitcast (i32 (...)* @gets to i32 (i8*, ...)*)(i8* %11)
  %13 = getelementptr inbounds [2000 x i8], [2000 x i8]* %10, i64 0, i64 0
  %14 = getelementptr inbounds [2000 x i8], [2000 x i8]* %9, i64 0, i64 0
  %15 = call i8* @strcpy(i8* %13, i8* %14) #4
  %16 = getelementptr inbounds [2000 x i8], [2000 x i8]* %10, i64 0, i64 0
  %17 = call i64 @strlen(i8* %16) #5
  %18 = trunc i64 %17 to i32
  store i32 %18, i32* %3, align 4
  store i32 0, i32* %4, align 4
  br label %19

19:                                               ; preds = %76, %0
  %20 = load i32, i32* %4, align 4
  %21 = load i32, i32* %3, align 4
  %22 = icmp slt i32 %20, %21
  br i1 %22, label %23, label %79

23:                                               ; preds = %19
  %24 = load i32, i32* %4, align 4
  %25 = sext i32 %24 to i64
  %26 = getelementptr inbounds [2000 x i8], [2000 x i8]* %10, i64 0, i64 %25
  %27 = load i8, i8* %26, align 1
  %28 = sext i8 %27 to i32
  %29 = icmp eq i32 %28, 44
  br i1 %29, label %35, label %30

30:                                               ; preds = %23
  %31 = load i32, i32* %4, align 4
  %32 = load i32, i32* %3, align 4
  %33 = sub nsw i32 %32, 1
  %34 = icmp eq i32 %31, %33
  br i1 %34, label %35, label %75

35:                                               ; preds = %30, %23
  %36 = getelementptr inbounds [2000 x i8], [2000 x i8]* %10, i64 0, i64 0
  %37 = call i32 @atoi(i8* %36) #5
  %38 = load i32, i32* %6, align 4
  %39 = sext i32 %38 to i64
  %40 = getelementptr inbounds [300 x i32], [300 x i32]* %1, i64 0, i64 %39
  store i32 %37, i32* %40, align 4
  %41 = load i32, i32* %6, align 4
  %42 = add nsw i32 %41, 1
  store i32 %42, i32* %6, align 4
  %43 = load i32, i32* %6, align 4
  store i32 %43, i32* %2, align 4
  store i32 0, i32* %5, align 4
  br label %44

44:                                               ; preds = %62, %35
  %45 = load i32, i32* %5, align 4
  %46 = load i32, i32* %3, align 4
  %47 = load i32, i32* %4, align 4
  %48 = sub nsw i32 %46, %47
  %49 = sub nsw i32 %48, 1
  %50 = icmp slt i32 %45, %49
  br i1 %50, label %51, label %65

51:                                               ; preds = %44
  %52 = load i32, i32* %4, align 4
  %53 = load i32, i32* %5, align 4
  %54 = add nsw i32 %52, %53
  %55 = add nsw i32 %54, 1
  %56 = sext i32 %55 to i64
  %57 = getelementptr inbounds [2000 x i8], [2000 x i8]* %10, i64 0, i64 %56
  %58 = load i8, i8* %57, align 1
  %59 = load i32, i32* %5, align 4
  %60 = sext i32 %59 to i64
  %61 = getelementptr inbounds [2000 x i8], [2000 x i8]* %10, i64 0, i64 %60
  store i8 %58, i8* %61, align 1
  br label %62

62:                                               ; preds = %51
  %63 = load i32, i32* %5, align 4
  %64 = add nsw i32 %63, 1
  store i32 %64, i32* %5, align 4
  br label %44

65:                                               ; preds = %44
  %66 = load i32, i32* %3, align 4
  %67 = load i32, i32* %4, align 4
  %68 = sub nsw i32 %66, %67
  %69 = sub nsw i32 %68, 1
  %70 = sext i32 %69 to i64
  %71 = getelementptr inbounds [2000 x i8], [2000 x i8]* %10, i64 0, i64 %70
  store i8 0, i8* %71, align 1
  %72 = getelementptr inbounds [2000 x i8], [2000 x i8]* %10, i64 0, i64 0
  %73 = call i64 @strlen(i8* %72) #5
  %74 = trunc i64 %73 to i32
  store i32 %74, i32* %3, align 4
  store i32 -1, i32* %4, align 4
  br label %75

75:                                               ; preds = %65, %30
  br label %76

76:                                               ; preds = %75
  %77 = load i32, i32* %4, align 4
  %78 = add nsw i32 %77, 1
  store i32 %78, i32* %4, align 4
  br label %19

79:                                               ; preds = %19
  store i32 0, i32* %4, align 4
  br label %80

80:                                               ; preds = %127, %79
  %81 = load i32, i32* %4, align 4
  %82 = load i32, i32* %2, align 4
  %83 = sub nsw i32 %82, 1
  %84 = icmp slt i32 %81, %83
  br i1 %84, label %85, label %130

85:                                               ; preds = %80
  store i32 0, i32* %5, align 4
  br label %86

86:                                               ; preds = %123, %85
  %87 = load i32, i32* %5, align 4
  %88 = load i32, i32* %2, align 4
  %89 = load i32, i32* %4, align 4
  %90 = sub nsw i32 %88, %89
  %91 = sub nsw i32 %90, 1
  %92 = icmp slt i32 %87, %91
  br i1 %92, label %93, label %126

93:                                               ; preds = %86
  %94 = load i32, i32* %5, align 4
  %95 = sext i32 %94 to i64
  %96 = getelementptr inbounds [300 x i32], [300 x i32]* %1, i64 0, i64 %95
  %97 = load i32, i32* %96, align 4
  %98 = load i32, i32* %5, align 4
  %99 = add nsw i32 %98, 1
  %100 = sext i32 %99 to i64
  %101 = getelementptr inbounds [300 x i32], [300 x i32]* %1, i64 0, i64 %100
  %102 = load i32, i32* %101, align 4
  %103 = icmp slt i32 %97, %102
  br i1 %103, label %104, label %122

104:                                              ; preds = %93
  %105 = load i32, i32* %5, align 4
  %106 = add nsw i32 %105, 1
  %107 = sext i32 %106 to i64
  %108 = getelementptr inbounds [300 x i32], [300 x i32]* %1, i64 0, i64 %107
  %109 = load i32, i32* %108, align 4
  store i32 %109, i32* %8, align 4
  %110 = load i32, i32* %5, align 4
  %111 = sext i32 %110 to i64
  %112 = getelementptr inbounds [300 x i32], [300 x i32]* %1, i64 0, i64 %111
  %113 = load i32, i32* %112, align 4
  %114 = load i32, i32* %5, align 4
  %115 = add nsw i32 %114, 1
  %116 = sext i32 %115 to i64
  %117 = getelementptr inbounds [300 x i32], [300 x i32]* %1, i64 0, i64 %116
  store i32 %113, i32* %117, align 4
  %118 = load i32, i32* %8, align 4
  %119 = load i32, i32* %5, align 4
  %120 = sext i32 %119 to i64
  %121 = getelementptr inbounds [300 x i32], [300 x i32]* %1, i64 0, i64 %120
  store i32 %118, i32* %121, align 4
  br label %122

122:                                              ; preds = %104, %93
  br label %123

123:                                              ; preds = %122
  %124 = load i32, i32* %5, align 4
  %125 = add nsw i32 %124, 1
  store i32 %125, i32* %5, align 4
  br label %86

126:                                              ; preds = %86
  br label %127

127:                                              ; preds = %126
  %128 = load i32, i32* %4, align 4
  %129 = add nsw i32 %128, 1
  store i32 %129, i32* %4, align 4
  br label %80

130:                                              ; preds = %80
  %131 = load i32, i32* %2, align 4
  %132 = icmp eq i32 %131, 1
  br i1 %132, label %142, label %133

133:                                              ; preds = %130
  %134 = getelementptr inbounds [300 x i32], [300 x i32]* %1, i64 0, i64 0
  %135 = load i32, i32* %134, align 16
  %136 = load i32, i32* %2, align 4
  %137 = sub nsw i32 %136, 1
  %138 = sext i32 %137 to i64
  %139 = getelementptr inbounds [300 x i32], [300 x i32]* %1, i64 0, i64 %138
  %140 = load i32, i32* %139, align 4
  %141 = icmp eq i32 %135, %140
  br i1 %141, label %142, label %144

142:                                              ; preds = %133, %130
  %143 = call i32 (i8*, ...) @printf(i8* getelementptr inbounds ([4 x i8], [4 x i8]* @.str, i64 0, i64 0))
  br label %168

144:                                              ; preds = %133
  store i32 0, i32* %7, align 4
  br label %145

145:                                              ; preds = %164, %144
  %146 = load i32, i32* %7, align 4
  %147 = load i32, i32* %2, align 4
  %148 = icmp slt i32 %146, %147
  br i1 %148, label %149, label %167

149:                                              ; preds = %145
  %150 = load i32, i32* %7, align 4
  %151 = sext i32 %150 to i64
  %152 = getelementptr inbounds [300 x i32], [300 x i32]* %1, i64 0, i64 %151
  %153 = load i32, i32* %152, align 4
  %154 = getelementptr inbounds [300 x i32], [300 x i32]* %1, i64 0, i64 0
  %155 = load i32, i32* %154, align 16
  %156 = icmp ne i32 %153, %155
  br i1 %156, label %157, label %163

157:                                              ; preds = %149
  %158 = load i32, i32* %7, align 4
  %159 = sext i32 %158 to i64
  %160 = getelementptr inbounds [300 x i32], [300 x i32]* %1, i64 0, i64 %159
  %161 = load i32, i32* %160, align 4
  %162 = call i32 (i8*, ...) @printf(i8* getelementptr inbounds ([4 x i8], [4 x i8]* @.str.1, i64 0, i64 0), i32 %161)
  br label %167

163:                                              ; preds = %149
  br label %164

164:                                              ; preds = %163
  %165 = load i32, i32* %7, align 4
  %166 = add nsw i32 %165, 1
  store i32 %166, i32* %7, align 4
  br label %145

167:                                              ; preds = %157, %145
  br label %168

168:                                              ; preds = %167, %142
  ret void
}